; Function Attrs: mustprogress nofree norecurse nosync nounwind willreturn memory(argmem: read) uwtable
define noundef double @_ZNK9benchmark17BenchmarkReporter3Run18GetAdjustedCPUTimeEv(ptr noundef nonnull readonly align 8 captures(none) dereferenceable(560) %0) local_unnamed_addr #9 align 2 {
switch.lookup:
  %1 = getelementptr inbounds nuw i8, ptr %0, i64 440
  %2 = load double, ptr %1, align 8, !tbaa !92
  %3 = getelementptr inbounds nuw i8, ptr %0, i64 424
  %4 = load i32, ptr %3, align 8, !tbaa !90
  %5 = sext i32 %4 to i64
  %switch.gep = getelementptr inbounds [4 x double], ptr @switch.table._ZNK9benchmark17BenchmarkReporter3Run18GetAdjustedCPUTimeEv, i64 0, i64 %5
  %switch.load = load double, ptr %switch.gep, align 8
  %6 = fmul double %2, %switch.load
  %7 = getelementptr inbounds nuw i8, ptr %0, i64 392
  %8 = load i64, ptr %7, align 8, !tbaa !91
  %.not = icmp eq i64 %8, 0
  %9 = sitofp i64 %8 to double
  %10 = fdiv double %6, %9
  %.0 = select i1 %.not, double %6, double %10
  ret double %.0
}